target datalayout = "e-m:e-p270:32:32-p271:32:32-p272:64:64-i64:64-i128:128-f80:128-n8:16:32:64-S128"
target triple = "x86_64-pc-linux-gnu"

%"struct.Gluco::Lit" = type { i32 }
%"struct.Gluco::Solver::WatcherDeleted" = type { ptr }
%"struct.Gluco::Solver::VarOrderLt" = type { ptr }
%"class.Gluco::Solver" = type { ptr, i32, ptr, ptr, i32, i8, ptr, i64, %"class.Gluco::vec", %"class.Gluco::vec.0", i32, %"class.Gluco::vec.1", %"class.Gluco::vec.0", i32, i32, i32, double, double, double, double, i32, i32, i32, i32, i32, i32, double, double, double, double, i32, i32, i8, i8, double, ptr, i8, i64, i64, i64, i64, i64, i64, i64, i64, i64, i64, i64, i64, i64, i64, i64, i64, i64, i64, i64, i64, i64, i64, i32, i8, double, %"class.Gluco::vec.2", double, %"class.Gluco::OccLists", %"class.Gluco::OccLists", %"class.Gluco::vec.5", %"class.Gluco::vec.5", %"class.Gluco::vec.1", %"class.Gluco::vec.4", %"class.Gluco::vec.4", %"class.Gluco::vec.0", %"class.Gluco::vec", %"class.Gluco::vec", %"class.Gluco::vec.6", i32, i32, i64, %"class.Gluco::vec.0", %"class.Gluco::Heap", double, i8, %"class.Gluco::vec.5", %"class.Gluco::vec.0", %"class.Gluco::ClauseAllocator", i32, %"class.Gluco::bqueue", %"class.Gluco::bqueue", float, i32, %"class.Gluco::vec.4", %"class.Gluco::vec.0", %"class.Gluco::vec.0", %"class.Gluco::vec.0", i32, double, double, i32, i64, i64, i8, i32, i32, double, double, i32, i32, %"class.Gluco::vec", %"class.Gluco::vec" }
%"class.Gluco::vec.2" = type { ptr, i32, i32 }
%"class.Gluco::OccLists" = type { %"class.Gluco::vec.3", %"class.Gluco::vec.4", %"class.Gluco::vec.0", %"struct.Gluco::Solver::WatcherDeleted" }
%"class.Gluco::vec.3" = type { ptr, i32, i32 }
%"class.Gluco::vec.1" = type { ptr, i32, i32 }
%"class.Gluco::vec.6" = type { ptr, i32, i32 }
%"class.Gluco::Heap" = type { %"struct.Gluco::Solver::VarOrderLt", %"class.Gluco::vec", %"class.Gluco::vec" }
%"class.Gluco::vec.5" = type { ptr, i32, i32 }
%"class.Gluco::ClauseAllocator" = type { %"class.Gluco::RegionAllocator.base", i8, [3 x i8] }
%"class.Gluco::RegionAllocator.base" = type <{ ptr, i32, i32, i32 }>
%"class.Gluco::bqueue" = type { %"class.Gluco::vec.5", i32, i32, i64, i32, i32, i8, double, double }
%"class.Gluco::vec.4" = type { ptr, i32, i32 }
%"class.Gluco::vec.0" = type { ptr, i32, i32 }
%"class.Gluco::vec" = type { ptr, i32, i32 }
%"class.Gluco::lbool" = type { i8 }

; Function Attrs: mustprogress nounwind uwtable
define linkonce_odr noundef nonnull align 4 dereferenceable(4) ptr @_ZNK5Gluco3vecIiEixEi(ptr noundef nonnull align 8 dereferenceable(16) %0, i32 noundef %1) #2 comdat align 2 {
  %3 = alloca ptr, align 8
  %4 = alloca i32, align 4
  store ptr %0, ptr %3, align 8
  store i32 %1, ptr %4, align 4
  %5 = load ptr, ptr %3, align 8
  %6 = getelementptr inbounds %"class.Gluco::vec", ptr %5, i32 0, i32 0
  %7 = load ptr, ptr %6, align 8
  %8 = load i32, ptr %4, align 4
  %9 = sext i32 %8 to i64
  %10 = getelementptr inbounds i32, ptr %7, i64 %9
  ret ptr %10
}

; Function Attrs: mustprogress uwtable
define linkonce_odr noundef zeroext i1 @_ZNK5Gluco4HeapINS_6Solver10VarOrderLtEE6inHeapEi(ptr noundef nonnull align 8 dereferenceable(40) %0, i32 noundef %1) #1 comdat align 2 {
  %3 = alloca ptr, align 8
  %4 = alloca i32, align 4
  store ptr %0, ptr %3, align 8
  store i32 %1, ptr %4, align 4
  %5 = load ptr, ptr %3, align 8
  %6 = load i32, ptr %4, align 4
  %7 = getelementptr inbounds %"class.Gluco::Heap", ptr %5, i32 0, i32 2
  %8 = call noundef i32 @_ZNK5Gluco3vecIiE4sizeEv(ptr noundef nonnull align 8 dereferenceable(16) %7)
  %9 = icmp slt i32 %6, %8
  br i1 %9, label %10, label %16

10:                                               ; preds = %2
  %11 = getelementptr inbounds %"class.Gluco::Heap", ptr %5, i32 0, i32 2
  %12 = load i32, ptr %4, align 4
  %13 = call noundef nonnull align 4 dereferenceable(4) ptr @_ZNK5Gluco3vecIiEixEi(ptr noundef nonnull align 8 dereferenceable(16) %11, i32 noundef %12)
  %14 = load i32, ptr %13, align 4
  %15 = icmp sge i32 %14, 0
  br label %16

16:                                               ; preds = %10, %2
  %17 = phi i1 [ false, %2 ], [ %15, %10 ]
  ret i1 %17
}

; Function Attrs: mustprogress nounwind uwtable
define linkonce_odr void @_ZN5Gluco3vecIiE6shrinkEi(ptr noundef nonnull align 8 dereferenceable(16) %0, i32 noundef %1) #2 comdat align 2 {
  %3 = alloca ptr, align 8
  %4 = alloca i32, align 4
  %5 = alloca i32, align 4
  store ptr %0, ptr %3, align 8
  store i32 %1, ptr %4, align 4
  %6 = load ptr, ptr %3, align 8
  store i32 0, ptr %5, align 4
  br label %7

7:                                                ; preds = %15, %2
  %8 = load i32, ptr %5, align 4
  %9 = load i32, ptr %4, align 4
  %10 = icmp slt i32 %8, %9
  br i1 %10, label %11, label %18

11:                                               ; preds = %7
  %12 = getelementptr inbounds %"class.Gluco::vec", ptr %6, i32 0, i32 1
  %13 = load i32, ptr %12, align 8
  %14 = add nsw i32 %13, -1
  store i32 %14, ptr %12, align 8
  br label %15

15:                                               ; preds = %11
  %16 = load i32, ptr %5, align 4
  %17 = add nsw i32 %16, 1
  store i32 %17, ptr %5, align 4
  br label %7, !llvm.loop !27

18:                                               ; preds = %7
  ret void
}

; Function Attrs: mustprogress nounwind uwtable
define linkonce_odr noundef i32 @_ZNK5Gluco3vecIiE4sizeEv(ptr noundef nonnull align 8 dereferenceable(16) %0) #2 comdat align 2 {
  %2 = alloca ptr, align 8
  store ptr %0, ptr %2, align 8
  %3 = load ptr, ptr %2, align 8
  %4 = getelementptr inbounds %"class.Gluco::vec", ptr %3, i32 0, i32 1
  %5 = load i32, ptr %4, align 8
  ret i32 %5
}

; Function Attrs: mustprogress nounwind uwtable
define linkonce_odr void @_ZN5Gluco3vecINS_3LitEE6shrinkEi(ptr noundef nonnull align 8 dereferenceable(16) %0, i32 noundef %1) #2 comdat align 2 {
  %3 = alloca ptr, align 8
  %4 = alloca i32, align 4
  %5 = alloca i32, align 4
  store ptr %0, ptr %3, align 8
  store i32 %1, ptr %4, align 4
  %6 = load ptr, ptr %3, align 8
  store i32 0, ptr %5, align 4
  br label %7

7:                                                ; preds = %15, %2
  %8 = load i32, ptr %5, align 4
  %9 = load i32, ptr %4, align 4
  %10 = icmp slt i32 %8, %9
  br i1 %10, label %11, label %18

11:                                               ; preds = %7
  %12 = getelementptr inbounds %"class.Gluco::vec.0", ptr %6, i32 0, i32 1
  %13 = load i32, ptr %12, align 8
  %14 = add nsw i32 %13, -1
  store i32 %14, ptr %12, align 8
  br label %15

15:                                               ; preds = %11
  %16 = load i32, ptr %5, align 4
  %17 = add nsw i32 %16, 1
  store i32 %17, ptr %5, align 4
  br label %7, !llvm.loop !10

18:                                               ; preds = %7
  ret void
}

; Function Attrs: mustprogress uwtable
define linkonce_odr void @_ZN5Gluco6Solver14insertVarOrderEi(ptr noundef nonnull align 8 dereferenceable(1216) %0, i32 noundef %1) #1 comdat align 2 {
  %3 = alloca ptr, align 8
  %4 = alloca i32, align 4
  store ptr %0, ptr %3, align 8
  store i32 %1, ptr %4, align 4
  %5 = load ptr, ptr %3, align 8
  %6 = getelementptr inbounds %"class.Gluco::Solver", ptr %5, i32 0, i32 79
  %7 = load i32, ptr %4, align 4
  %8 = call noundef zeroext i1 @_ZNK5Gluco4HeapINS_6Solver10VarOrderLtEE6inHeapEi(ptr noundef nonnull align 8 dereferenceable(40) %6, i32 noundef %7)
  br i1 %8, label %18, label %9

9:                                                ; preds = %2
  %10 = getelementptr inbounds %"class.Gluco::Solver", ptr %5, i32 0, i32 70
  %11 = load i32, ptr %4, align 4
  %12 = call noundef nonnull align 1 dereferenceable(1) ptr @_ZN5Gluco3vecIcEixEi(ptr noundef nonnull align 8 dereferenceable(16) %10, i32 noundef %11)
  %13 = load i8, ptr %12, align 1
  %14 = icmp ne i8 %13, 0
  br i1 %14, label %15, label %18

15:                                               ; preds = %9
  %16 = getelementptr inbounds %"class.Gluco::Solver", ptr %5, i32 0, i32 79
  %17 = load i32, ptr %4, align 4
  call void @_ZN5Gluco4HeapINS_6Solver10VarOrderLtEE6insertEi(ptr noundef nonnull align 8 dereferenceable(40) %16, i32 noundef %17)
  br label %18

18:                                               ; preds = %15, %9, %2
  ret void
}

; Function Attrs: mustprogress nounwind uwtable
define linkonce_odr noundef nonnull align 1 dereferenceable(1) ptr @_ZN5Gluco3vecIcEixEi(ptr noundef nonnull align 8 dereferenceable(16) %0, i32 noundef %1) #2 comdat align 2 {
  %3 = alloca ptr, align 8
  %4 = alloca i32, align 4
  store ptr %0, ptr %3, align 8
  store i32 %1, ptr %4, align 4
  %5 = load ptr, ptr %3, align 8
  %6 = getelementptr inbounds %"class.Gluco::vec.4", ptr %5, i32 0, i32 0
  %7 = load ptr, ptr %6, align 8
  %8 = load i32, ptr %4, align 4
  %9 = sext i32 %8 to i64
  %10 = getelementptr inbounds i8, ptr %7, i64 %9
  ret ptr %10
}

; Function Attrs: mustprogress nounwind uwtable
define linkonce_odr noundef zeroext i1 @_ZN5Gluco4signENS_3LitE(i32 %0) #2 comdat {
  %2 = alloca %"struct.Gluco::Lit", align 4
  %3 = getelementptr inbounds %"struct.Gluco::Lit", ptr %2, i32 0, i32 0
  store i32 %0, ptr %3, align 4
  %4 = getelementptr inbounds %"struct.Gluco::Lit", ptr %2, i32 0, i32 0
  %5 = load i32, ptr %4, align 4
  %6 = and i32 %5, 1
  %7 = icmp ne i32 %6, 0
  ret i1 %7
}

; Function Attrs: mustprogress nounwind uwtable
define linkonce_odr noundef nonnull align 4 dereferenceable(4) ptr @_ZN5Gluco3vecIiE4lastEv(ptr noundef nonnull align 8 dereferenceable(16) %0) #2 comdat align 2 {
  %2 = alloca ptr, align 8
  store ptr %0, ptr %2, align 8
  %3 = load ptr, ptr %2, align 8
  %4 = getelementptr inbounds %"class.Gluco::vec", ptr %3, i32 0, i32 0
  %5 = load ptr, ptr %4, align 8
  %6 = getelementptr inbounds %"class.Gluco::vec", ptr %3, i32 0, i32 1
  %7 = load i32, ptr %6, align 8
  %8 = sub nsw i32 %7, 1
  %9 = sext i32 %8 to i64
  %10 = getelementptr inbounds i32, ptr %5, i64 %9
  ret ptr %10
}

; Function Attrs: mustprogress nounwind uwtable
define linkonce_odr noundef nonnull align 1 dereferenceable(1) ptr @_ZN5Gluco3vecINS_5lboolEEixEi(ptr noundef nonnull align 8 dereferenceable(16) %0, i32 noundef %1) #2 comdat align 2 {
  %3 = alloca ptr, align 8
  %4 = alloca i32, align 4
  store ptr %0, ptr %3, align 8
  store i32 %1, ptr %4, align 4
  %5 = load ptr, ptr %3, align 8
  %6 = getelementptr inbounds %"class.Gluco::vec.1", ptr %5, i32 0, i32 0
  %7 = load ptr, ptr %6, align 8
  %8 = load i32, ptr %4, align 4
  %9 = sext i32 %8 to i64
  %10 = getelementptr inbounds %"class.Gluco::lbool", ptr %7, i64 %9
  ret ptr %10
}

; Function Attrs: mustprogress nounwind uwtable
define linkonce_odr void @_ZN5Gluco5lboolC2Eh(ptr noundef nonnull align 1 dereferenceable(1) %0, i8 noundef zeroext %1) unnamed_addr #2 comdat align 2 {
  %3 = alloca ptr, align 8
  %4 = alloca i8, align 1
  store ptr %0, ptr %3, align 8
  store i8 %1, ptr %4, align 1
  %5 = load ptr, ptr %3, align 8
  %6 = getelementptr inbounds %"class.Gluco::lbool", ptr %5, i32 0, i32 0
  %7 = load i8, ptr %4, align 1
  store i8 %7, ptr %6, align 1
  ret void
}

; Function Attrs: mustprogress nounwind uwtable
define linkonce_odr noundef i32 @_ZN5Gluco3varENS_3LitE(i32 %0) #2 comdat {
  %2 = alloca %"struct.Gluco::Lit", align 4
  %3 = getelementptr inbounds %"struct.Gluco::Lit", ptr %2, i32 0, i32 0
  store i32 %0, ptr %3, align 4
  %4 = getelementptr inbounds %"struct.Gluco::Lit", ptr %2, i32 0, i32 0
  %5 = load i32, ptr %4, align 4
  %6 = ashr i32 %5, 1
  ret i32 %6
}

; Function Attrs: mustprogress nounwind uwtable
define linkonce_odr noundef nonnull align 4 dereferenceable(4) ptr @_ZN5Gluco3vecINS_3LitEEixEi(ptr noundef nonnull align 8 dereferenceable(16) %0, i32 noundef %1) #2 comdat align 2 {
  %3 = alloca ptr, align 8
  %4 = alloca i32, align 4
  store ptr %0, ptr %3, align 8
  store i32 %1, ptr %4, align 4
  %5 = load ptr, ptr %3, align 8
  %6 = getelementptr inbounds %"class.Gluco::vec.0", ptr %5, i32 0, i32 0
  %7 = load ptr, ptr %6, align 8
  %8 = load i32, ptr %4, align 4
  %9 = sext i32 %8 to i64
  %10 = getelementptr inbounds %"struct.Gluco::Lit", ptr %7, i64 %9
  ret ptr %10
}

; Function Attrs: mustprogress nounwind uwtable
define linkonce_odr noundef nonnull align 4 dereferenceable(4) ptr @_ZN5Gluco3vecIiEixEi(ptr noundef nonnull align 8 dereferenceable(16) %0, i32 noundef %1) #2 comdat align 2 {
  %3 = alloca ptr, align 8
  %4 = alloca i32, align 4
  store ptr %0, ptr %3, align 8
  store i32 %1, ptr %4, align 4
  %5 = load ptr, ptr %3, align 8
  %6 = getelementptr inbounds %"class.Gluco::vec", ptr %5, i32 0, i32 0
  %7 = load ptr, ptr %6, align 8
  %8 = load i32, ptr %4, align 4
  %9 = sext i32 %8 to i64
  %10 = getelementptr inbounds i32, ptr %7, i64 %9
  ret ptr %10
}

; Function Attrs: mustprogress nounwind uwtable
define linkonce_odr noundef i32 @_ZNK5Gluco3vecINS_3LitEE4sizeEv(ptr noundef nonnull align 8 dereferenceable(16) %0) #2 comdat align 2 {
  %2 = alloca ptr, align 8
  store ptr %0, ptr %2, align 8
  %3 = load ptr, ptr %2, align 8
  %4 = getelementptr inbounds %"class.Gluco::vec.0", ptr %3, i32 0, i32 1
  %5 = load i32, ptr %4, align 8
  ret i32 %5
}

; Function Attrs: mustprogress uwtable
define linkonce_odr noundef i32 @_ZNK5Gluco6Solver13decisionLevelEv(ptr noundef nonnull align 8 dereferenceable(1216) %0) #1 comdat align 2 {
  %2 = alloca ptr, align 8
  store ptr %0, ptr %2, align 8
  %3 = load ptr, ptr %2, align 8
  %4 = getelementptr inbounds %"class.Gluco::Solver", ptr %3, i32 0, i32 73
  %5 = call noundef i32 @_ZNK5Gluco3vecIiE4sizeEv(ptr noundef nonnull align 8 dereferenceable(16) %4)
  ret i32 %5
}

; Function Attrs: mustprogress uwtable
define void @_ZN5Gluco6Solver11cancelUntilEi(ptr noundef nonnull align 8 dereferenceable(1216) %0, i32 noundef %1) #1 align 2 {
  %3 = alloca ptr, align 8
  %4 = alloca i32, align 4
  %5 = alloca i32, align 4
  %6 = alloca i32, align 4
  %7 = alloca %"struct.Gluco::Lit", align 4
  %8 = alloca %"class.Gluco::lbool", align 1
  %9 = alloca %"struct.Gluco::Lit", align 4
  store ptr %0, ptr %3, align 8
  store i32 %1, ptr %4, align 4
  %10 = load ptr, ptr %3, align 8
  %11 = call noundef i32 @_ZNK5Gluco6Solver13decisionLevelEv(ptr noundef nonnull align 8 dereferenceable(1216) %10)
  %12 = load i32, ptr %4, align 4
  %13 = icmp sgt i32 %11, %12
  br i1 %13, label %14, label %83

14:                                               ; preds = %2
  %15 = getelementptr inbounds %"class.Gluco::Solver", ptr %10, i32 0, i32 71
  %16 = call noundef i32 @_ZNK5Gluco3vecINS_3LitEE4sizeEv(ptr noundef nonnull align 8 dereferenceable(16) %15)
  %17 = sub nsw i32 %16, 1
  store i32 %17, ptr %5, align 4
  br label %18

18:                                               ; preds = %61, %14
  %19 = load i32, ptr %5, align 4
  %20 = getelementptr inbounds %"class.Gluco::Solver", ptr %10, i32 0, i32 73
  %21 = load i32, ptr %4, align 4
  %22 = call noundef nonnull align 4 dereferenceable(4) ptr @_ZN5Gluco3vecIiEixEi(ptr noundef nonnull align 8 dereferenceable(16) %20, i32 noundef %21)
  %23 = load i32, ptr %22, align 4
  %24 = icmp sge i32 %19, %23
  br i1 %24, label %25, label %64

25:                                               ; preds = %18
  %26 = getelementptr inbounds %"class.Gluco::Solver", ptr %10, i32 0, i32 71
  %27 = load i32, ptr %5, align 4
  %28 = call noundef nonnull align 4 dereferenceable(4) ptr @_ZN5Gluco3vecINS_3LitEEixEi(ptr noundef nonnull align 8 dereferenceable(16) %26, i32 noundef %27)
  call void @llvm.memcpy.p0.p0.i64(ptr align 4 %7, ptr align 4 %28, i64 4, i1 false)
  %29 = getelementptr inbounds %"struct.Gluco::Lit", ptr %7, i32 0, i32 0
  %30 = load i32, ptr %29, align 4
  %31 = call noundef i32 @_ZN5Gluco3varENS_3LitE(i32 %30)
  store i32 %31, ptr %6, align 4
  call void @_ZN5Gluco5lboolC2Eh(ptr noundef nonnull align 1 dereferenceable(1) %8, i8 noundef zeroext 2)
  %32 = getelementptr inbounds %"class.Gluco::Solver", ptr %10, i32 0, i32 68
  %33 = load i32, ptr %6, align 4
  %34 = call noundef nonnull align 1 dereferenceable(1) ptr @_ZN5Gluco3vecINS_5lboolEEixEi(ptr noundef nonnull align 8 dereferenceable(16) %32, i32 noundef %33)
  call void @llvm.memcpy.p0.p0.i64(ptr align 1 %34, ptr align 1 %8, i64 1, i1 false)
  %35 = getelementptr inbounds %"class.Gluco::Solver", ptr %10, i32 0, i32 31
  %36 = load i32, ptr %35, align 4
  %37 = icmp sgt i32 %36, 1
  br i1 %37, label %48, label %38

38:                                               ; preds = %25
  %39 = getelementptr inbounds %"class.Gluco::Solver", ptr %10, i32 0, i32 31
  %40 = load i32, ptr %39, align 4
  %41 = icmp eq i32 %40, 1
  br i1 %41, label %42, label %59

42:                                               ; preds = %38
  %43 = load i32, ptr %5, align 4
  %44 = getelementptr inbounds %"class.Gluco::Solver", ptr %10, i32 0, i32 73
  %45 = call noundef nonnull align 4 dereferenceable(4) ptr @_ZN5Gluco3vecIiE4lastEv(ptr noundef nonnull align 8 dereferenceable(16) %44)
  %46 = load i32, ptr %45, align 4
  %47 = icmp sgt i32 %43, %46
  br i1 %47, label %48, label %59

48:                                               ; preds = %42, %25
  %49 = getelementptr inbounds %"class.Gluco::Solver", ptr %10, i32 0, i32 71
  %50 = load i32, ptr %5, align 4
  %51 = call noundef nonnull align 4 dereferenceable(4) ptr @_ZN5Gluco3vecINS_3LitEEixEi(ptr noundef nonnull align 8 dereferenceable(16) %49, i32 noundef %50)
  call void @llvm.memcpy.p0.p0.i64(ptr align 4 %9, ptr align 4 %51, i64 4, i1 false)
  %52 = getelementptr inbounds %"struct.Gluco::Lit", ptr %9, i32 0, i32 0
  %53 = load i32, ptr %52, align 4
  %54 = call noundef zeroext i1 @_ZN5Gluco4signENS_3LitE(i32 %53)
  %55 = zext i1 %54 to i8
  %56 = getelementptr inbounds %"class.Gluco::Solver", ptr %10, i32 0, i32 69
  %57 = load i32, ptr %6, align 4
  %58 = call noundef nonnull align 1 dereferenceable(1) ptr @_ZN5Gluco3vecIcEixEi(ptr noundef nonnull align 8 dereferenceable(16) %56, i32 noundef %57)
  store i8 %55, ptr %58, align 1
  br label %59

59:                                               ; preds = %48, %42, %38
  %60 = load i32, ptr %6, align 4
  call void @_ZN5Gluco6Solver14insertVarOrderEi(ptr noundef nonnull align 8 dereferenceable(1216) %10, i32 noundef %60)
  br label %61

61:                                               ; preds = %59
  %62 = load i32, ptr %5, align 4
  %63 = add nsw i32 %62, -1
  store i32 %63, ptr %5, align 4
  br label %18, !llvm.loop !26

64:                                               ; preds = %18
  %65 = getelementptr inbounds %"class.Gluco::Solver", ptr %10, i32 0, i32 73
  %66 = load i32, ptr %4, align 4
  %67 = call noundef nonnull align 4 dereferenceable(4) ptr @_ZN5Gluco3vecIiEixEi(ptr noundef nonnull align 8 dereferenceable(16) %65, i32 noundef %66)
  %68 = load i32, ptr %67, align 4
  %69 = getelementptr inbounds %"class.Gluco::Solver", ptr %10, i32 0, i32 75
  store i32 %68, ptr %69, align 8
  %70 = getelementptr inbounds %"class.Gluco::Solver", ptr %10, i32 0, i32 71
  %71 = getelementptr inbounds %"class.Gluco::Solver", ptr %10, i32 0, i32 71
  %72 = call noundef i32 @_ZNK5Gluco3vecINS_3LitEE4sizeEv(ptr noundef nonnull align 8 dereferenceable(16) %71)
  %73 = getelementptr inbounds %"class.Gluco::Solver", ptr %10, i32 0, i32 73
  %74 = load i32, ptr %4, align 4
  %75 = call noundef nonnull align 4 dereferenceable(4) ptr @_ZN5Gluco3vecIiEixEi(ptr noundef nonnull align 8 dereferenceable(16) %73, i32 noundef %74)
  %76 = load i32, ptr %75, align 4
  %77 = sub nsw i32 %72, %76
  call void @_ZN5Gluco3vecINS_3LitEE6shrinkEi(ptr noundef nonnull align 8 dereferenceable(16) %70, i32 noundef %77)
  %78 = getelementptr inbounds %"class.Gluco::Solver", ptr %10, i32 0, i32 73
  %79 = getelementptr inbounds %"class.Gluco::Solver", ptr %10, i32 0, i32 73
  %80 = call noundef i32 @_ZNK5Gluco3vecIiE4sizeEv(ptr noundef nonnull align 8 dereferenceable(16) %79)
  %81 = load i32, ptr %4, align 4
  %82 = sub nsw i32 %80, %81
  call void @_ZN5Gluco3vecIiE6shrinkEi(ptr noundef nonnull align 8 dereferenceable(16) %78, i32 noundef %82)
  br label %83

83:                                               ; preds = %64, %2
  ret void
}