; Function Attrs: mustprogress uwtable
define void @_ZN5Gluco6Solver11cancelUntilEi(ptr noundef nonnull align 8 dereferenceable(1216) %0, i32 noundef %1) local_unnamed_addr #2 align 2 {
  %3 = getelementptr inbounds i8, ptr %0, i64 720
  %4 = load i32, ptr %3, align 8
  %5 = icmp sgt i32 %4, %1
  br i1 %5, label %6, label %_ZN5Gluco3vecIiE6shrinkEi.exit

6:                                                ; preds = %2
  %7 = getelementptr inbounds i8, ptr %0, i64 680
  %8 = getelementptr inbounds i8, ptr %0, i64 688
  %9 = load i32, ptr %8, align 8
  %10 = getelementptr inbounds i8, ptr %0, i64 712
  %11 = sext i32 %1 to i64
  %12 = load ptr, ptr %10, align 8
  %13 = getelementptr inbounds i32, ptr %12, i64 %11
  %14 = load i32, ptr %13, align 4
  %.not.not22 = icmp sgt i32 %9, %14
  br i1 %.not.not22, label %.lr.ph, label %._crit_edge

.lr.ph:                                           ; preds = %6
  %15 = getelementptr inbounds i8, ptr %0, i64 632
  %16 = getelementptr inbounds i8, ptr %0, i64 236
  %17 = getelementptr inbounds i8, ptr %0, i64 648
  %18 = getelementptr inbounds i8, ptr %0, i64 776
  %19 = getelementptr inbounds i8, ptr %0, i64 808
  %20 = getelementptr inbounds i8, ptr %0, i64 800
  %21 = getelementptr inbounds i8, ptr %0, i64 664
  %22 = sext i32 %9 to i64
  br label %23

23:                                               ; preds = %.lr.ph, %_ZN5Gluco6Solver14insertVarOrderEi.exit
  %indvars.iv = phi i64 [ %22, %.lr.ph ], [ %indvars.iv.next, %_ZN5Gluco6Solver14insertVarOrderEi.exit ]
  %indvars.iv.next = add nsw i64 %indvars.iv, -1
  %24 = load ptr, ptr %7, align 8
  %25 = getelementptr inbounds %"struct.Gluco::Lit", ptr %24, i64 %indvars.iv.next
  %.sroa.01.0.copyload = load i32, ptr %25, align 4
  %26 = ashr i32 %.sroa.01.0.copyload, 1
  %27 = load ptr, ptr %15, align 8
  %28 = sext i32 %26 to i64
  %29 = getelementptr inbounds %"class.Gluco::lbool", ptr %27, i64 %28
  store i8 2, ptr %29, align 1
  %30 = load i32, ptr %16, align 4
  %31 = icmp sgt i32 %30, 1
  br i1 %31, label %43, label %32

32:                                               ; preds = %23
  %33 = icmp eq i32 %30, 1
  br i1 %33, label %34, label %50

34:                                               ; preds = %32
  %35 = load ptr, ptr %10, align 8
  %36 = load i32, ptr %3, align 8
  %37 = sext i32 %36 to i64
  %38 = getelementptr i32, ptr %35, i64 %37
  %39 = getelementptr i8, ptr %38, i64 -4
  %40 = load i32, ptr %39, align 4
  %41 = sext i32 %40 to i64
  %42 = icmp sgt i64 %indvars.iv.next, %41
  br i1 %42, label %43, label %50

43:                                               ; preds = %34, %23
  %44 = load ptr, ptr %7, align 8
  %45 = getelementptr inbounds %"struct.Gluco::Lit", ptr %44, i64 %indvars.iv.next
  %.sroa.0.0.copyload = load i32, ptr %45, align 4
  %46 = trunc i32 %.sroa.0.0.copyload to i8
  %47 = and i8 %46, 1
  %48 = load ptr, ptr %17, align 8
  %49 = getelementptr inbounds i8, ptr %48, i64 %28
  store i8 %47, ptr %49, align 1
  br label %50

50:                                               ; preds = %43, %34, %32
  %51 = load i32, ptr %19, align 8
  %52 = icmp sgt i32 %51, %26
  br i1 %52, label %_ZNK5Gluco4HeapINS_6Solver10VarOrderLtEE6inHeapEi.exit.i, label %_ZNK5Gluco4HeapINS_6Solver10VarOrderLtEE6inHeapEi.exit.thread.i

_ZNK5Gluco4HeapINS_6Solver10VarOrderLtEE6inHeapEi.exit.i: ; preds = %50
  %53 = load ptr, ptr %20, align 8
  %54 = getelementptr inbounds i32, ptr %53, i64 %28
  %55 = load i32, ptr %54, align 4
  %56 = icmp sgt i32 %55, -1
  br i1 %56, label %_ZN5Gluco6Solver14insertVarOrderEi.exit, label %_ZNK5Gluco4HeapINS_6Solver10VarOrderLtEE6inHeapEi.exit.thread.i

_ZNK5Gluco4HeapINS_6Solver10VarOrderLtEE6inHeapEi.exit.thread.i: ; preds = %50, %_ZNK5Gluco4HeapINS_6Solver10VarOrderLtEE6inHeapEi.exit.i
  %57 = load ptr, ptr %21, align 8
  %58 = getelementptr inbounds i8, ptr %57, i64 %28
  %59 = load i8, ptr %58, align 1
  %.not.i = icmp eq i8 %59, 0
  br i1 %.not.i, label %_ZN5Gluco6Solver14insertVarOrderEi.exit, label %60

60:                                               ; preds = %_ZNK5Gluco4HeapINS_6Solver10VarOrderLtEE6inHeapEi.exit.thread.i
  tail call void @_ZN5Gluco4HeapINS_6Solver10VarOrderLtEE6insertEi(ptr noundef nonnull align 8 dereferenceable(40) %18, i32 noundef %26)
  br label %_ZN5Gluco6Solver14insertVarOrderEi.exit

_ZN5Gluco6Solver14insertVarOrderEi.exit:          ; preds = %_ZNK5Gluco4HeapINS_6Solver10VarOrderLtEE6inHeapEi.exit.i, %_ZNK5Gluco4HeapINS_6Solver10VarOrderLtEE6inHeapEi.exit.thread.i, %60
  %61 = load ptr, ptr %10, align 8
  %62 = getelementptr inbounds i32, ptr %61, i64 %11
  %63 = load i32, ptr %62, align 4
  %64 = sext i32 %63 to i64
  %.not.not = icmp sgt i64 %indvars.iv.next, %64
  br i1 %.not.not, label %23, label %._crit_edge.loopexit, !llvm.loop !30

._crit_edge.loopexit:                             ; preds = %_ZN5Gluco6Solver14insertVarOrderEi.exit
  %.pre = load i32, ptr %8, align 8
  br label %._crit_edge

._crit_edge:                                      ; preds = %._crit_edge.loopexit, %6
  %65 = phi i32 [ %9, %6 ], [ %.pre, %._crit_edge.loopexit ]
  %.lcssa19 = phi ptr [ %12, %6 ], [ %61, %._crit_edge.loopexit ]
  %.lcssa = phi i32 [ %14, %6 ], [ %63, %._crit_edge.loopexit ]
  %66 = getelementptr inbounds i32, ptr %.lcssa19, i64 %11
  %67 = getelementptr inbounds i8, ptr %0, i64 744
  store i32 %.lcssa, ptr %67, align 8
  %68 = load i32, ptr %66, align 4
  %69 = icmp sgt i32 %65, %68
  br i1 %69, label %.lr.ph.i, label %_ZN5Gluco3vecINS_3LitEE6shrinkEi.exit

.lr.ph.i:                                         ; preds = %._crit_edge
  store i32 %68, ptr %8, align 8
  br label %_ZN5Gluco3vecINS_3LitEE6shrinkEi.exit

_ZN5Gluco3vecINS_3LitEE6shrinkEi.exit:            ; preds = %._crit_edge, %.lr.ph.i
  %70 = load i32, ptr %3, align 8
  %71 = icmp sgt i32 %70, %1
  br i1 %71, label %.lr.ph.i16, label %_ZN5Gluco3vecIiE6shrinkEi.exit

.lr.ph.i16:                                       ; preds = %_ZN5Gluco3vecINS_3LitEE6shrinkEi.exit
  store i32 %1, ptr %3, align 8
  br label %_ZN5Gluco3vecIiE6shrinkEi.exit

_ZN5Gluco3vecIiE6shrinkEi.exit:                   ; preds = %.lr.ph.i16, %_ZN5Gluco3vecINS_3LitEE6shrinkEi.exit, %2
  ret void
}